target datalayout = "e-m:e-p270:32:32-p271:32:32-p272:64:64-i64:64-i128:128-f80:128-n8:16:32:64-S128"
target triple = "x86_64-pc-linux-gnu"

%struct.Maj3_Man_t_ = type { i32, i32, i32, i32, i32, ptr, ptr, [32 x [32 x i32]], [32 x i32], [2 x [32 x i32]], [3 x i32], ptr }

; Function Attrs: nounwind uwtable
define internal i32 @Abc_TtWordNum(i32 noundef %0) #0 {
  %2 = alloca i32, align 4
  store i32 %0, ptr %2, align 4
  %3 = load i32, ptr %2, align 4
  %4 = icmp sle i32 %3, 6
  br i1 %4, label %5, label %6

5:                                                ; preds = %1
  br label %10

6:                                                ; preds = %1
  %7 = load i32, ptr %2, align 4
  %8 = sub nsw i32 %7, 6
  %9 = shl i32 1, %8
  br label %10

10:                                               ; preds = %6, %5
  %11 = phi i32 [ 1, %5 ], [ %9, %6 ]
  ret i32 %11
}

; Function Attrs: nounwind uwtable
define ptr @Maj3_ManAlloc(i32 noundef %0, i32 noundef %1, ptr noundef %2) #0 {
  %4 = alloca i32, align 4
  %5 = alloca i32, align 4
  %6 = alloca ptr, align 8
  %7 = alloca ptr, align 8
  store i32 %0, ptr %4, align 4
  store i32 %1, ptr %5, align 4
  store ptr %2, ptr %6, align 8
  %8 = call noalias ptr @calloc(i64 noundef 1, i64 noundef 4544) #10
  store ptr %8, ptr %7, align 8
  %9 = load ptr, ptr %6, align 8
  %10 = load ptr, ptr %7, align 8
  %11 = getelementptr inbounds %struct.Maj3_Man_t_, ptr %10, i32 0, i32 6
  store ptr %9, ptr %11, align 8
  %12 = load i32, ptr %4, align 4
  %13 = load ptr, ptr %7, align 8
  %14 = getelementptr inbounds %struct.Maj3_Man_t_, ptr %13, i32 0, i32 0
  store i32 %12, ptr %14, align 8
  %15 = load i32, ptr %5, align 4
  %16 = load ptr, ptr %7, align 8
  %17 = getelementptr inbounds %struct.Maj3_Man_t_, ptr %16, i32 0, i32 1
  store i32 %15, ptr %17, align 4
  %18 = load i32, ptr %4, align 4
  %19 = load i32, ptr %5, align 4
  %20 = add nsw i32 %18, %19
  %21 = load ptr, ptr %7, align 8
  %22 = getelementptr inbounds %struct.Maj3_Man_t_, ptr %21, i32 0, i32 2
  store i32 %20, ptr %22, align 8
  %23 = load i32, ptr %4, align 4
  %24 = call i32 @Abc_TtWordNum(i32 noundef %23)
  %25 = load ptr, ptr %7, align 8
  %26 = getelementptr inbounds %struct.Maj3_Man_t_, ptr %25, i32 0, i32 3
  store i32 %24, ptr %26, align 4
  %27 = load ptr, ptr %7, align 8
  %28 = call i32 @Maj3_ManMarkup(ptr noundef %27)
  %29 = load ptr, ptr %7, align 8
  %30 = getelementptr inbounds %struct.Maj3_Man_t_, ptr %29, i32 0, i32 4
  store i32 %28, ptr %30, align 8
  %31 = load ptr, ptr %7, align 8
  %32 = call ptr @Maj3_ManTruthTables(ptr noundef %31)
  %33 = load ptr, ptr %7, align 8
  %34 = getelementptr inbounds %struct.Maj3_Man_t_, ptr %33, i32 0, i32 5
  store ptr %32, ptr %34, align 8
  %35 = call ptr (...) @bmcg_sat_solver_start()
  %36 = load ptr, ptr %7, align 8
  %37 = getelementptr inbounds %struct.Maj3_Man_t_, ptr %36, i32 0, i32 11
  store ptr %35, ptr %37, align 8
  %38 = load ptr, ptr %7, align 8
  %39 = getelementptr inbounds %struct.Maj3_Man_t_, ptr %38, i32 0, i32 11
  %40 = load ptr, ptr %39, align 8
  %41 = load ptr, ptr %7, align 8
  %42 = getelementptr inbounds %struct.Maj3_Man_t_, ptr %41, i32 0, i32 4
  %43 = load i32, ptr %42, align 8
  call void @bmcg_sat_solver_set_nvars(ptr noundef %40, i32 noundef %43)
  %44 = load ptr, ptr %7, align 8
  %45 = call i32 @Maj3_ManAddCnfStart(ptr noundef %44)
  %46 = load ptr, ptr %7, align 8
  ret ptr %46
}