; Function Attrs: nounwind uwtable
define noalias noundef ptr @Maj3_ManAlloc(i32 noundef %0, i32 noundef %1, ptr noundef %2) local_unnamed_addr #2 {
  %4 = tail call noalias dereferenceable_or_null(4544) ptr @calloc(i64 noundef 1, i64 noundef 4544) #23
  %5 = getelementptr inbounds nuw i8, ptr %4, i64 32
  store ptr %2, ptr %5, align 8
  store i32 %0, ptr %4, align 8
  %6 = getelementptr inbounds nuw i8, ptr %4, i64 4
  store i32 %1, ptr %6, align 4
  %7 = add nsw i32 %1, %0
  %8 = getelementptr inbounds nuw i8, ptr %4, i64 8
  store i32 %7, ptr %8, align 8
  %9 = icmp slt i32 %0, 7
  %10 = add nsw i32 %0, -6
  %11 = shl nuw i32 1, %10
  %12 = select i1 %9, i32 1, i32 %11
  %13 = getelementptr inbounds nuw i8, ptr %4, i64 12
  store i32 %12, ptr %13, align 4
  %14 = tail call i32 @Maj3_ManMarkup(ptr noundef nonnull %4)
  %15 = getelementptr inbounds nuw i8, ptr %4, i64 16
  store i32 %14, ptr %15, align 8
  %16 = tail call ptr @Maj3_ManTruthTables(ptr noundef nonnull %4)
  %17 = getelementptr inbounds nuw i8, ptr %4, i64 24
  store ptr %16, ptr %17, align 8
  %18 = tail call ptr (...) @bmcg_sat_solver_start() #22
  %19 = getelementptr inbounds nuw i8, ptr %4, i64 4536
  store ptr %18, ptr %19, align 8
  %20 = load i32, ptr %15, align 8
  tail call void @bmcg_sat_solver_set_nvars(ptr noundef %18, i32 noundef %20) #22
  %21 = tail call i32 @Maj3_ManAddCnfStart(ptr noundef nonnull %4)
  ret ptr %4
}